target datalayout = "e-m:e-p270:32:32-p271:32:32-p272:64:64-i64:64-i128:128-f80:128-n8:16:32:64-S128"
target triple = "x86_64-pc-linux-gnu"

%"class.cv::(anonymous namespace)::GSafePtr" = type { ptr }
%"class.cv::CvVideoWriter_GStreamer" = type { %"class.cv::IVideoWriter", %"class.cv::(anonymous namespace)::GSafePtr", %"class.cv::(anonymous namespace)::GSafePtr", i32, i32, i32, double, i32, i32 }
%"class.cv::IVideoWriter" = type { ptr }

; Function Attrs: mustprogress nounwind uwtable
define hidden noundef double @_ZNK2cv23CvVideoWriter_GStreamer11getPropertyEi(ptr noundef nonnull align 8 dereferenceable(56) %0, i32 noundef %1) unnamed_addr #7 align 2 {
  %3 = alloca double, align 8
  %4 = alloca ptr, align 8
  %5 = alloca i32, align 4
  store ptr %0, ptr %4, align 8, !tbaa !339
  store i32 %1, ptr %5, align 4, !tbaa !99
  %6 = load ptr, ptr %4, align 8
  %7 = load i32, ptr %5, align 4, !tbaa !99
  %8 = icmp eq i32 %7, 6
  br i1 %8, label %9, label %13

9:                                                ; preds = %2
  %10 = getelementptr inbounds nuw %"class.cv::CvVideoWriter_GStreamer", ptr %6, i32 0, i32 7
  %11 = load i32, ptr %10, align 8, !tbaa !348
  %12 = uitofp i32 %11 to double
  store double %12, ptr %3, align 8
  br label %22

13:                                               ; preds = %2
  %14 = load i32, ptr %5, align 4, !tbaa !99
  %15 = icmp eq i32 %14, 7
  br i1 %15, label %16, label %20

16:                                               ; preds = %13
  %17 = getelementptr inbounds nuw %"class.cv::CvVideoWriter_GStreamer", ptr %6, i32 0, i32 8
  %18 = load i32, ptr %17, align 4, !tbaa !351
  %19 = sitofp i32 %18 to double
  store double %19, ptr %3, align 8
  br label %22

20:                                               ; preds = %13
  br label %21

21:                                               ; preds = %20
  store double 0.000000e+00, ptr %3, align 8
  br label %22

22:                                               ; preds = %21, %16, %9
  %23 = load double, ptr %3, align 8
  ret double %23
}