; Function Attrs: mustprogress nofree norecurse nosync nounwind willreturn memory(argmem: read) uwtable
define hidden noundef double @_ZNK2cv23CvVideoWriter_GStreamer11getPropertyEi(ptr noundef nonnull readonly align 8 captures(none) dereferenceable(56) %0, i32 noundef %1) unnamed_addr #19 align 2 {
  switch i32 %1, label %11 [
    i32 6, label %3
    i32 7, label %7
  ]

3:                                                ; preds = %2
  %4 = getelementptr inbounds nuw i8, ptr %0, i64 48
  %5 = load i32, ptr %4, align 8, !tbaa !660
  %6 = uitofp i32 %5 to double
  br label %11

7:                                                ; preds = %2
  %8 = getelementptr inbounds nuw i8, ptr %0, i64 52
  %9 = load i32, ptr %8, align 4, !tbaa !663
  %10 = sitofp i32 %9 to double
  br label %11

11:                                               ; preds = %2, %7, %3
  %.0 = phi double [ %6, %3 ], [ %10, %7 ], [ 0.000000e+00, %2 ]
  ret double %.0
}